target datalayout = "e-m:e-p270:32:32-p271:32:32-p272:64:64-i64:64-i128:128-f80:128-n8:16:32:64-S128"
target triple = "x86_64-pc-linux-gnu"

%struct.dt_imageio_jpeg_error_mgr = type { %struct.jpeg_error_mgr, [1 x %struct.__jmp_buf_tag] }
%struct.jpeg_error_mgr = type { ptr, ptr, ptr, ptr, ptr, i32, %union.anon, i32, i64, ptr, i32, ptr, i32, i32 }
%union.anon = type { [8 x i32], [48 x i8] }
%struct.__jmp_buf_tag = type { [8 x i64], i32, %struct.__sigset_t }
%struct.__sigset_t = type { [16 x i64] }
%struct.jpeg_common_struct = type { ptr, ptr, ptr, ptr, i32, i32 }

; Function Attrs: nounwind uwtable
define internal void @dt_imageio_jpeg_error_exit(ptr noundef %0) #0 {
  %2 = alloca ptr, align 8
  %3 = alloca ptr, align 8
  store ptr %0, ptr %2, align 8, !tbaa !75
  call void @llvm.lifetime.start.p0(i64 8, ptr %3) #9
  %4 = load ptr, ptr %2, align 8, !tbaa !75
  %5 = getelementptr inbounds nuw %struct.jpeg_common_struct, ptr %4, i32 0, i32 0
  %6 = load ptr, ptr %5, align 8, !tbaa !77
  store ptr %6, ptr %3, align 8, !tbaa !79
  %7 = load ptr, ptr %2, align 8, !tbaa !75
  %8 = getelementptr inbounds nuw %struct.jpeg_common_struct, ptr %7, i32 0, i32 0
  %9 = load ptr, ptr %8, align 8, !tbaa !77
  %10 = getelementptr inbounds nuw %struct.jpeg_error_mgr, ptr %9, i32 0, i32 2
  %11 = load ptr, ptr %10, align 8, !tbaa !81
  %12 = load ptr, ptr %2, align 8, !tbaa !75
  call void %11(ptr noundef %12)
  %13 = load ptr, ptr %3, align 8, !tbaa !79
  %14 = getelementptr inbounds nuw %struct.dt_imageio_jpeg_error_mgr, ptr %13, i32 0, i32 1
  %15 = getelementptr inbounds [1 x %struct.__jmp_buf_tag], ptr %14, i64 0, i64 0
  call void @longjmp(ptr noundef %15, i32 noundef 1) #11
  unreachable
}